target datalayout = "e-m:e-p270:32:32-p271:32:32-p272:64:64-i64:64-i128:128-f80:128-n8:16:32:64-S128"
target triple = "x86_64-pc-linux-gnu"

%struct.sfparse_parser = type { ptr, ptr, i32 }
%struct.sfparse_value = type { i32, i32, %union.anon }
%union.anon = type { %struct.sfparse_decimal }
%struct.sfparse_decimal = type { i64, i64 }

@.str = private unnamed_addr constant [2 x i8] c"0\00", align 1
@.str.1 = private unnamed_addr constant [107 x i8] c"generated/home/dtcxzyw/WorkSpace/Projects/compilers/llvm-opt-benchmark/bench/nghttp2/nghttp2/lib/sfparse.c\00", align 1
@__PRETTY_FUNCTION__.sfparse_parser_item = private unnamed_addr constant [59 x i8] c"int sfparse_parser_item(sfparse_parser *, sfparse_value *)\00", align 1
@__PRETTY_FUNCTION__.parser_skip_params = private unnamed_addr constant [41 x i8] c"int parser_skip_params(sfparse_parser *)\00", align 1
@__PRETTY_FUNCTION__.parser_skip_inner_list = private unnamed_addr constant [45 x i8] c"int parser_skip_inner_list(sfparse_parser *)\00", align 1

; Function Attrs: nounwind uwtable
define internal i32 @parser_skip_params(ptr noundef %0) #0 {
  %2 = alloca i32, align 4
  %3 = alloca ptr, align 8
  %4 = alloca i32, align 4
  %5 = alloca i32, align 4
  store ptr %0, ptr %3, align 8, !tbaa !3
  call void @llvm.lifetime.start.p0(i64 4, ptr %4) #5
  br label %6

6:                                                ; preds = %14, %1
  %7 = load ptr, ptr %3, align 8, !tbaa !3
  %8 = call i32 @sfparse_parser_param(ptr noundef %7, ptr noundef null, ptr noundef null)
  store i32 %8, ptr %4, align 4, !tbaa !16
  %9 = load i32, ptr %4, align 4, !tbaa !16
  switch i32 %9, label %13 [
    i32 0, label %14
    i32 -2, label %10
    i32 -1, label %11
  ]

10:                                               ; preds = %6
  store i32 0, ptr %2, align 4
  store i32 1, ptr %5, align 4
  br label %15

11:                                               ; preds = %6
  %12 = load i32, ptr %4, align 4, !tbaa !16
  store i32 %12, ptr %2, align 4
  store i32 1, ptr %5, align 4
  br label %15

13:                                               ; preds = %6
  call void @__assert_fail(ptr noundef @.str, ptr noundef @.str.1, i32 noundef 1280, ptr noundef @__PRETTY_FUNCTION__.parser_skip_params) #6
  unreachable

14:                                               ; preds = %6
  br label %6

15:                                               ; preds = %11, %10
  call void @llvm.lifetime.end.p0(i64 4, ptr %4) #5
  %16 = load i32, ptr %2, align 4
  ret i32 %16
}

; Function Attrs: nounwind uwtable
define internal i32 @parser_skip_inner_list(ptr noundef %0) #0 {
  %2 = alloca i32, align 4
  %3 = alloca ptr, align 8
  %4 = alloca i32, align 4
  %5 = alloca i32, align 4
  store ptr %0, ptr %3, align 8, !tbaa !3
  call void @llvm.lifetime.start.p0(i64 4, ptr %4) #5
  br label %6

6:                                                ; preds = %14, %1
  %7 = load ptr, ptr %3, align 8, !tbaa !3
  %8 = call i32 @sfparse_parser_inner_list(ptr noundef %7, ptr noundef null)
  store i32 %8, ptr %4, align 4, !tbaa !16
  %9 = load i32, ptr %4, align 4, !tbaa !16
  switch i32 %9, label %13 [
    i32 0, label %14
    i32 -2, label %10
    i32 -1, label %11
  ]

10:                                               ; preds = %6
  store i32 0, ptr %2, align 4
  store i32 1, ptr %5, align 4
  br label %15

11:                                               ; preds = %6
  %12 = load i32, ptr %4, align 4, !tbaa !16
  store i32 %12, ptr %2, align 4
  store i32 1, ptr %5, align 4
  br label %15

13:                                               ; preds = %6
  call void @__assert_fail(ptr noundef @.str, ptr noundef @.str.1, i32 noundef 1365, ptr noundef @__PRETTY_FUNCTION__.parser_skip_inner_list) #6
  unreachable

14:                                               ; preds = %6
  br label %6

15:                                               ; preds = %11, %10
  call void @llvm.lifetime.end.p0(i64 4, ptr %4) #5
  %16 = load i32, ptr %2, align 4
  ret i32 %16
}

; Function Attrs: nounwind uwtable
define internal i32 @parser_eof(ptr noundef %0) #0 {
  %2 = alloca ptr, align 8
  store ptr %0, ptr %2, align 8, !tbaa !3
  %3 = load ptr, ptr %2, align 8, !tbaa !3
  %4 = getelementptr inbounds nuw %struct.sfparse_parser, ptr %3, i32 0, i32 0
  %5 = load ptr, ptr %4, align 8, !tbaa !17
  %6 = load ptr, ptr %2, align 8, !tbaa !3
  %7 = getelementptr inbounds nuw %struct.sfparse_parser, ptr %6, i32 0, i32 1
  %8 = load ptr, ptr %7, align 8, !tbaa !22
  %9 = icmp eq ptr %5, %8
  %10 = zext i1 %9 to i32
  ret i32 %10
}

; Function Attrs: nounwind uwtable
define internal void @parser_discard_sp(ptr noundef %0) #0 {
  %2 = alloca ptr, align 8
  store ptr %0, ptr %2, align 8, !tbaa !3
  br label %3

3:                                                ; preds = %17, %1
  %4 = load ptr, ptr %2, align 8, !tbaa !3
  %5 = call i32 @parser_eof(ptr noundef %4)
  %6 = icmp ne i32 %5, 0
  br i1 %6, label %14, label %7

7:                                                ; preds = %3
  %8 = load ptr, ptr %2, align 8, !tbaa !3
  %9 = getelementptr inbounds nuw %struct.sfparse_parser, ptr %8, i32 0, i32 0
  %10 = load ptr, ptr %9, align 8, !tbaa !17
  %11 = load i8, ptr %10, align 1, !tbaa !18
  %12 = zext i8 %11 to i32
  %13 = icmp eq i32 %12, 32
  br label %14

14:                                               ; preds = %7, %3
  %15 = phi i1 [ false, %3 ], [ %13, %7 ]
  br i1 %15, label %16, label %22

16:                                               ; preds = %14
  br label %17

17:                                               ; preds = %16
  %18 = load ptr, ptr %2, align 8, !tbaa !3
  %19 = getelementptr inbounds nuw %struct.sfparse_parser, ptr %18, i32 0, i32 0
  %20 = load ptr, ptr %19, align 8, !tbaa !17
  %21 = getelementptr inbounds nuw i8, ptr %20, i32 1
  store ptr %21, ptr %19, align 8, !tbaa !17
  br label %3, !llvm.loop !23

22:                                               ; preds = %14
  ret void
}

; Function Attrs: nounwind uwtable
define hidden i32 @sfparse_parser_item(ptr noundef %0, ptr noundef %1) #0 {
  %3 = alloca i32, align 4
  %4 = alloca ptr, align 8
  %5 = alloca ptr, align 8
  %6 = alloca i32, align 4
  %7 = alloca i32, align 4
  store ptr %0, ptr %4, align 8, !tbaa !3
  store ptr %1, ptr %5, align 8, !tbaa !10
  call void @llvm.lifetime.start.p0(i64 4, ptr %6) #5
  %8 = load ptr, ptr %4, align 8, !tbaa !3
  %9 = getelementptr inbounds nuw %struct.sfparse_parser, ptr %8, i32 0, i32 2
  %10 = load i32, ptr %9, align 8, !tbaa !12
  switch i32 %10, label %41 [
    i32 0, label %11
    i32 28, label %18
    i32 25, label %26
    i32 27, label %34
  ]

11:                                               ; preds = %2
  %12 = load ptr, ptr %4, align 8, !tbaa !3
  call void @parser_discard_sp(ptr noundef %12)
  %13 = load ptr, ptr %4, align 8, !tbaa !3
  %14 = call i32 @parser_eof(ptr noundef %13)
  %15 = icmp ne i32 %14, 0
  br i1 %15, label %16, label %17

16:                                               ; preds = %11
  store i32 -1, ptr %3, align 4
  store i32 1, ptr %7, align 4
  br label %75

17:                                               ; preds = %11
  br label %42

18:                                               ; preds = %2
  %19 = load ptr, ptr %4, align 8, !tbaa !3
  %20 = call i32 @parser_skip_inner_list(ptr noundef %19)
  store i32 %20, ptr %6, align 4, !tbaa !16
  %21 = load i32, ptr %6, align 4, !tbaa !16
  %22 = icmp ne i32 %21, 0
  br i1 %22, label %23, label %25

23:                                               ; preds = %18
  %24 = load i32, ptr %6, align 4, !tbaa !16
  store i32 %24, ptr %3, align 4
  store i32 1, ptr %7, align 4
  br label %75

25:                                               ; preds = %18
  br label %26

26:                                               ; preds = %2, %25
  %27 = load ptr, ptr %4, align 8, !tbaa !3
  %28 = call i32 @parser_skip_params(ptr noundef %27)
  store i32 %28, ptr %6, align 4, !tbaa !16
  %29 = load i32, ptr %6, align 4, !tbaa !16
  %30 = icmp ne i32 %29, 0
  br i1 %30, label %31, label %33

31:                                               ; preds = %26
  %32 = load i32, ptr %6, align 4, !tbaa !16
  store i32 %32, ptr %3, align 4
  store i32 1, ptr %7, align 4
  br label %75

33:                                               ; preds = %26
  br label %34

34:                                               ; preds = %2, %33
  %35 = load ptr, ptr %4, align 8, !tbaa !3
  call void @parser_discard_sp(ptr noundef %35)
  %36 = load ptr, ptr %4, align 8, !tbaa !3
  %37 = call i32 @parser_eof(ptr noundef %36)
  %38 = icmp ne i32 %37, 0
  br i1 %38, label %40, label %39

39:                                               ; preds = %34
  store i32 -1, ptr %3, align 4
  store i32 1, ptr %7, align 4
  br label %75

40:                                               ; preds = %34
  store i32 -2, ptr %3, align 4
  store i32 1, ptr %7, align 4
  br label %75

41:                                               ; preds = %2
  call void @__assert_fail(ptr noundef @.str, ptr noundef @.str.1, i32 noundef 1580, ptr noundef @__PRETTY_FUNCTION__.sfparse_parser_item) #6
  unreachable

42:                                               ; preds = %17
  %43 = load ptr, ptr %4, align 8, !tbaa !3
  %44 = getelementptr inbounds nuw %struct.sfparse_parser, ptr %43, i32 0, i32 0
  %45 = load ptr, ptr %44, align 8, !tbaa !17
  %46 = load i8, ptr %45, align 1, !tbaa !18
  %47 = zext i8 %46 to i32
  %48 = icmp eq i32 %47, 40
  br i1 %48, label %49, label %64

49:                                               ; preds = %42
  %50 = load ptr, ptr %5, align 8, !tbaa !10
  %51 = icmp ne ptr %50, null
  br i1 %51, label %52, label %57

52:                                               ; preds = %49
  %53 = load ptr, ptr %5, align 8, !tbaa !10
  %54 = getelementptr inbounds nuw %struct.sfparse_value, ptr %53, i32 0, i32 0
  store i32 6, ptr %54, align 8, !tbaa !19
  %55 = load ptr, ptr %5, align 8, !tbaa !10
  %56 = getelementptr inbounds nuw %struct.sfparse_value, ptr %55, i32 0, i32 1
  store i32 0, ptr %56, align 4, !tbaa !21
  br label %57

57:                                               ; preds = %52, %49
  %58 = load ptr, ptr %4, align 8, !tbaa !3
  %59 = getelementptr inbounds nuw %struct.sfparse_parser, ptr %58, i32 0, i32 0
  %60 = load ptr, ptr %59, align 8, !tbaa !17
  %61 = getelementptr inbounds nuw i8, ptr %60, i32 1
  store ptr %61, ptr %59, align 8, !tbaa !17
  %62 = load ptr, ptr %4, align 8, !tbaa !3
  %63 = getelementptr inbounds nuw %struct.sfparse_parser, ptr %62, i32 0, i32 2
  store i32 28, ptr %63, align 8, !tbaa !12
  store i32 0, ptr %3, align 4
  store i32 1, ptr %7, align 4
  br label %75

64:                                               ; preds = %42
  %65 = load ptr, ptr %4, align 8, !tbaa !3
  %66 = load ptr, ptr %5, align 8, !tbaa !10
  %67 = call i32 @parser_bare_item(ptr noundef %65, ptr noundef %66)
  store i32 %67, ptr %6, align 4, !tbaa !16
  %68 = load i32, ptr %6, align 4, !tbaa !16
  %69 = icmp ne i32 %68, 0
  br i1 %69, label %70, label %72

70:                                               ; preds = %64
  %71 = load i32, ptr %6, align 4, !tbaa !16
  store i32 %71, ptr %3, align 4
  store i32 1, ptr %7, align 4
  br label %75

72:                                               ; preds = %64
  %73 = load ptr, ptr %4, align 8, !tbaa !3
  %74 = getelementptr inbounds nuw %struct.sfparse_parser, ptr %73, i32 0, i32 2
  store i32 25, ptr %74, align 8, !tbaa !12
  store i32 0, ptr %3, align 4
  store i32 1, ptr %7, align 4
  br label %75

75:                                               ; preds = %72, %70, %57, %40, %39, %31, %23, %16
  call void @llvm.lifetime.end.p0(i64 4, ptr %6) #5
  %76 = load i32, ptr %3, align 4
  ret i32 %76
}