; Function Attrs: nounwind uwtable
define hidden range(i32 -2, 1) i32 @sfparse_parser_item(ptr noundef captures(none) %0, ptr noundef %1) local_unnamed_addr #0 {
  %3 = getelementptr inbounds nuw i8, ptr %0, i64 16
  %4 = load i32, ptr %3, align 8, !tbaa !3
  switch i32 %4, label %18 [
    i32 0, label %5
    i32 28, label %.preheader
    i32 25, label %parser_skip_inner_list.exit.thread.preheader
    i32 27, label %parser_skip_params.exit.thread
  ]

parser_skip_inner_list.exit.thread.preheader:     ; preds = %.preheader, %2
  br label %parser_skip_inner_list.exit.thread

5:                                                ; preds = %2
  %6 = getelementptr i8, ptr %0, i64 8
  %.val3.i = load ptr, ptr %6, align 8, !tbaa !11
  %.promoted.i = load ptr, ptr %0, align 8, !tbaa !10
  %.not5.i = icmp eq ptr %.promoted.i, %.val3.i
  br i1 %.not5.i, label %parser_discard_sp.exit, label %.lr.ph.i

.lr.ph.i:                                         ; preds = %5, %9
  %.val46.i = phi ptr [ %10, %9 ], [ %.promoted.i, %5 ]
  %7 = load i8, ptr %.val46.i, align 1, !tbaa !12
  %8 = icmp eq i8 %7, 32
  br i1 %8, label %9, label %parser_discard_sp.exit

9:                                                ; preds = %.lr.ph.i
  %10 = getelementptr inbounds nuw i8, ptr %.val46.i, i64 1
  store ptr %10, ptr %0, align 8, !tbaa !10
  %.not.i = icmp eq ptr %10, %.val3.i
  br i1 %.not.i, label %parser_discard_sp.exit, label %.lr.ph.i, !llvm.loop !13

parser_discard_sp.exit:                           ; preds = %.lr.ph.i, %9, %5
  %.val32 = phi ptr [ %.promoted.i, %5 ], [ %.val46.i, %.lr.ph.i ], [ %10, %9 ]
  %.not48 = icmp eq ptr %.val32, %.val3.i
  br i1 %.not48, label %parser_skip_inner_list.exit, label %19

.preheader:                                       ; preds = %2, %.preheader
  %11 = tail call i32 @sfparse_parser_inner_list(ptr noundef nonnull %0, ptr noundef null)
  switch i32 %11, label %default.unreachable [
    i32 0, label %.preheader
    i32 -2, label %parser_skip_inner_list.exit.thread.preheader
    i32 -1, label %parser_skip_inner_list.exit
  ]

default.unreachable:                              ; preds = %.preheader, %parser_skip_inner_list.exit.thread
  unreachable

parser_skip_inner_list.exit.thread:               ; preds = %parser_skip_inner_list.exit.thread.preheader, %parser_skip_inner_list.exit.thread
  %12 = tail call i32 @sfparse_parser_param(ptr noundef nonnull %0, ptr noundef null, ptr noundef null)
  switch i32 %12, label %default.unreachable [
    i32 0, label %parser_skip_inner_list.exit.thread
    i32 -2, label %parser_skip_params.exit.thread
    i32 -1, label %parser_skip_inner_list.exit
  ]

parser_skip_params.exit.thread:                   ; preds = %parser_skip_inner_list.exit.thread, %2
  %13 = getelementptr i8, ptr %0, i64 8
  %.val3.i37 = load ptr, ptr %13, align 8, !tbaa !11
  %.promoted.i38 = load ptr, ptr %0, align 8, !tbaa !10
  %.not5.i39 = icmp eq ptr %.promoted.i38, %.val3.i37
  br i1 %.not5.i39, label %parser_discard_sp.exit43, label %.lr.ph.i40

.lr.ph.i40:                                       ; preds = %parser_skip_params.exit.thread, %16
  %.val46.i41 = phi ptr [ %17, %16 ], [ %.promoted.i38, %parser_skip_params.exit.thread ]
  %14 = load i8, ptr %.val46.i41, align 1, !tbaa !12
  %15 = icmp eq i8 %14, 32
  br i1 %15, label %16, label %parser_discard_sp.exit43

16:                                               ; preds = %.lr.ph.i40
  %17 = getelementptr inbounds nuw i8, ptr %.val46.i41, i64 1
  store ptr %17, ptr %0, align 8, !tbaa !10
  %.not.i42 = icmp eq ptr %17, %.val3.i37
  br i1 %.not.i42, label %parser_discard_sp.exit43, label %.lr.ph.i40, !llvm.loop !13

parser_discard_sp.exit43:                         ; preds = %.lr.ph.i40, %16, %parser_skip_params.exit.thread
  %.val = phi ptr [ %.val3.i37, %parser_skip_params.exit.thread ], [ %.val46.i41, %.lr.ph.i40 ], [ %.val3.i37, %16 ]
  %.not = icmp eq ptr %.val, %.val3.i37
  %. = select i1 %.not, i32 -2, i32 -1
  br label %parser_skip_inner_list.exit

18:                                               ; preds = %2
  tail call void @__assert_fail(ptr noundef nonnull @.str, ptr noundef nonnull @.str.1, i32 noundef 1580, ptr noundef nonnull @__PRETTY_FUNCTION__.sfparse_parser_item) #8
  unreachable

19:                                               ; preds = %parser_discard_sp.exit
  %20 = load i8, ptr %.val32, align 1, !tbaa !12
  %21 = icmp eq i8 %20, 40
  br i1 %21, label %22, label %27

22:                                               ; preds = %19
  %.not30 = icmp eq ptr %1, null
  br i1 %.not30, label %25, label %23

23:                                               ; preds = %22
  store i32 6, ptr %1, align 8, !tbaa !15
  %24 = getelementptr inbounds nuw i8, ptr %1, i64 4
  store i32 0, ptr %24, align 4, !tbaa !17
  br label %25

25:                                               ; preds = %23, %22
  %26 = getelementptr inbounds nuw i8, ptr %.val32, i64 1
  store ptr %26, ptr %0, align 8, !tbaa !10
  store i32 28, ptr %3, align 8, !tbaa !3
  br label %parser_skip_inner_list.exit

27:                                               ; preds = %19
  %28 = tail call fastcc i32 @parser_bare_item(ptr noundef nonnull %0, ptr noundef %1)
  %.not29 = icmp eq i32 %28, 0
  br i1 %.not29, label %29, label %parser_skip_inner_list.exit

29:                                               ; preds = %27
  store i32 25, ptr %3, align 8, !tbaa !3
  br label %parser_skip_inner_list.exit

parser_skip_inner_list.exit:                      ; preds = %.preheader, %parser_skip_inner_list.exit.thread, %27, %parser_discard_sp.exit43, %parser_discard_sp.exit, %29, %25
  %.0 = phi i32 [ 0, %25 ], [ 0, %29 ], [ -1, %parser_discard_sp.exit ], [ %., %parser_discard_sp.exit43 ], [ -1, %27 ], [ %12, %parser_skip_inner_list.exit.thread ], [ %11, %.preheader ]
  ret i32 %.0
}